target datalayout = "e-m:e-p270:32:32-p271:32:32-p272:64:64-i64:64-i128:128-f80:128-n8:16:32:64-S128"
target triple = "x86_64-pc-linux-gnu"

%struct.pmix_value = type { i16, %union.anon }
%union.anon = type { %struct.pmix_envar_t }
%struct.pmix_envar_t = type { ptr, ptr, i8 }
%struct.pmix_info = type { [512 x i8], i32, %struct.pmix_value }

@.str = private unnamed_addr constant [5 x i8] c"hash\00", align 1
@.str.14 = private unnamed_addr constant [13 x i8] c"pmix.gds.mod\00", align 1

; Function Attrs: nounwind uwtable
define internal i32 @hash_assign_module(ptr noundef %0, i64 noundef %1, ptr noundef %2) #0 {
  %4 = alloca ptr, align 8
  %5 = alloca i64, align 8
  %6 = alloca ptr, align 8
  %7 = alloca i64, align 8
  %8 = alloca i64, align 8
  %9 = alloca ptr, align 8
  store ptr %0, ptr %4, align 8, !tbaa !3
  store i64 %1, ptr %5, align 8, !tbaa !8
  store ptr %2, ptr %6, align 8, !tbaa !28
  call void @llvm.lifetime.start.p0(i64 8, ptr %7) #11
  call void @llvm.lifetime.start.p0(i64 8, ptr %8) #11
  call void @llvm.lifetime.start.p0(i64 8, ptr %9) #11
  %10 = load ptr, ptr %6, align 8, !tbaa !28
  store i32 10, ptr %10, align 4, !tbaa !10
  %11 = load ptr, ptr %4, align 8, !tbaa !3
  %12 = icmp ne ptr null, %11
  br i1 %12, label %13, label %60

13:                                               ; preds = %3
  store i64 0, ptr %7, align 8, !tbaa !8
  br label %14

14:                                               ; preds = %56, %13
  %15 = load i64, ptr %7, align 8, !tbaa !8
  %16 = load i64, ptr %5, align 8, !tbaa !8
  %17 = icmp ult i64 %15, %16
  br i1 %17, label %18, label %59

18:                                               ; preds = %14
  %19 = load ptr, ptr %4, align 8, !tbaa !3
  %20 = load i64, ptr %7, align 8, !tbaa !8
  %21 = getelementptr inbounds nuw %struct.pmix_info, ptr %19, i64 %20
  %22 = getelementptr inbounds nuw %struct.pmix_info, ptr %21, i32 0, i32 0
  %23 = getelementptr inbounds [512 x i8], ptr %22, i64 0, i64 0
  %24 = call i32 @strncmp(ptr noundef %23, ptr noundef @.str.14, i64 noundef 511) #12
  %25 = icmp eq i32 0, %24
  br i1 %25, label %26, label %55

26:                                               ; preds = %18
  %27 = load ptr, ptr %4, align 8, !tbaa !3
  %28 = load i64, ptr %7, align 8, !tbaa !8
  %29 = getelementptr inbounds nuw %struct.pmix_info, ptr %27, i64 %28
  %30 = getelementptr inbounds nuw %struct.pmix_info, ptr %29, i32 0, i32 2
  %31 = getelementptr inbounds nuw %struct.pmix_value, ptr %30, i32 0, i32 1
  %32 = load ptr, ptr %31, align 8, !tbaa !30
  %33 = call ptr @PMIx_Argv_split(ptr noundef %32, i32 noundef 44)
  store ptr %33, ptr %9, align 8, !tbaa !31
  store i64 0, ptr %8, align 8, !tbaa !8
  br label %34

34:                                               ; preds = %50, %26
  %35 = load ptr, ptr %9, align 8, !tbaa !31
  %36 = load i64, ptr %8, align 8, !tbaa !8
  %37 = getelementptr inbounds nuw ptr, ptr %35, i64 %36
  %38 = load ptr, ptr %37, align 8, !tbaa !33
  %39 = icmp ne ptr null, %38
  br i1 %39, label %40, label %53

40:                                               ; preds = %34
  %41 = load ptr, ptr %9, align 8, !tbaa !31
  %42 = load i64, ptr %8, align 8, !tbaa !8
  %43 = getelementptr inbounds nuw ptr, ptr %41, i64 %42
  %44 = load ptr, ptr %43, align 8, !tbaa !33
  %45 = call i32 @strcmp(ptr noundef %44, ptr noundef @.str) #12
  %46 = icmp eq i32 0, %45
  br i1 %46, label %47, label %49

47:                                               ; preds = %40
  %48 = load ptr, ptr %6, align 8, !tbaa !28
  store i32 100, ptr %48, align 4, !tbaa !10
  br label %53

49:                                               ; preds = %40
  br label %50

50:                                               ; preds = %49
  %51 = load i64, ptr %8, align 8, !tbaa !8
  %52 = add i64 %51, 1
  store i64 %52, ptr %8, align 8, !tbaa !8
  br label %34, !llvm.loop !34

53:                                               ; preds = %47, %34
  %54 = load ptr, ptr %9, align 8, !tbaa !31
  call void @PMIx_Argv_free(ptr noundef %54)
  br label %59

55:                                               ; preds = %18
  br label %56

56:                                               ; preds = %55
  %57 = load i64, ptr %7, align 8, !tbaa !8
  %58 = add i64 %57, 1
  store i64 %58, ptr %7, align 8, !tbaa !8
  br label %14, !llvm.loop !35

59:                                               ; preds = %53, %14
  br label %60

60:                                               ; preds = %59, %3
  call void @llvm.lifetime.end.p0(i64 8, ptr %9) #11
  call void @llvm.lifetime.end.p0(i64 8, ptr %8) #11
  call void @llvm.lifetime.end.p0(i64 8, ptr %7) #11
  ret i32 0
}