; Function Attrs: nounwind uwtable
define internal noundef i32 @hash_assign_module(ptr noundef readonly captures(address_is_null) %0, i64 noundef %1, ptr noundef writeonly captures(none) initializes((0, 4)) %2) #0 {
  store i32 10, ptr %2, align 4, !tbaa !3
  %.not = icmp ne ptr %0, null
  %4 = icmp ne i64 %1, 0
  %or.cond = and i1 %.not, %4
  br i1 %or.cond, label %.lr.ph, label %.loopexit19

5:                                                ; preds = %.lr.ph
  %6 = add nuw i64 %.020, 1
  %exitcond.not = icmp eq i64 %6, %1
  br i1 %exitcond.not, label %.loopexit19, label %.lr.ph, !llvm.loop !33

.lr.ph:                                           ; preds = %3, %5
  %.020 = phi i64 [ %6, %5 ], [ 0, %3 ]
  %7 = getelementptr inbounds nuw %struct.pmix_info, ptr %0, i64 %.020
  %8 = tail call i32 @strncmp(ptr noundef nonnull dereferenceable(1) %7, ptr noundef nonnull dereferenceable(13) @.str.14, i64 noundef 511) #19
  %9 = icmp eq i32 %8, 0
  br i1 %9, label %10, label %5

10:                                               ; preds = %.lr.ph
  %11 = getelementptr inbounds nuw i8, ptr %7, i64 528
  %12 = load ptr, ptr %11, align 8, !tbaa !34
  %13 = tail call ptr @PMIx_Argv_split(ptr noundef %12, i32 noundef 44) #15
  %14 = load ptr, ptr %13, align 8, !tbaa !35
  %.not1821 = icmp eq ptr %14, null
  br i1 %.not1821, label %.loopexit, label %.lr.ph23

15:                                               ; preds = %.lr.ph23
  %16 = add i64 %.01522, 1
  %17 = getelementptr inbounds nuw ptr, ptr %13, i64 %16
  %18 = load ptr, ptr %17, align 8, !tbaa !35
  %.not18 = icmp eq ptr %18, null
  br i1 %.not18, label %.loopexit, label %.lr.ph23, !llvm.loop !36

.lr.ph23:                                         ; preds = %10, %15
  %19 = phi ptr [ %18, %15 ], [ %14, %10 ]
  %.01522 = phi i64 [ %16, %15 ], [ 0, %10 ]
  %20 = tail call i32 @strcmp(ptr noundef nonnull dereferenceable(1) %19, ptr noundef nonnull dereferenceable(5) @.str) #19
  %21 = icmp eq i32 %20, 0
  br i1 %21, label %22, label %15

22:                                               ; preds = %.lr.ph23
  store i32 100, ptr %2, align 4, !tbaa !3
  br label %.loopexit

.loopexit:                                        ; preds = %15, %10, %22
  tail call void @PMIx_Argv_free(ptr noundef nonnull %13) #15
  br label %.loopexit19

.loopexit19:                                      ; preds = %5, %.loopexit, %3
  ret i32 0
}